target datalayout = "e-m:e-p270:32:32-p271:32:32-p272:64:64-i64:64-i128:128-f80:128-n8:16:32:64-S128"
target triple = "x86_64-pc-linux-gnu"

%struct.quic_rstream_st = type { %struct.sframe_list_st, ptr, ptr, %struct.uint_range_st, %struct.ring_buf }
%struct.sframe_list_st = type { ptr, ptr, i32, i64, i64, i32, i32 }
%struct.uint_range_st = type { i64, i64 }
%struct.ring_buf = type { ptr, i64, i64, i64 }
%struct.OSSL_TIME = type { i64 }
%struct.ossl_rtt_info_st = type { %struct.OSSL_TIME, %struct.OSSL_TIME, %struct.OSSL_TIME, %struct.OSSL_TIME }

; Function Attrs: inlinehint nounwind uwtable
define internal i64 @ossl_ticks2time(i64 noundef %0) #3 {
  %2 = alloca %struct.OSSL_TIME, align 8
  %3 = alloca i64, align 8
  store i64 %0, ptr %3, align 8, !tbaa !10
  %4 = load i64, ptr %3, align 8, !tbaa !10
  %5 = getelementptr inbounds nuw %struct.OSSL_TIME, ptr %2, i32 0, i32 0
  store i64 %4, ptr %5, align 8, !tbaa !49
  %6 = getelementptr inbounds nuw %struct.OSSL_TIME, ptr %2, i32 0, i32 0
  %7 = load i64, ptr %6, align 8
  ret i64 %7
}

; Function Attrs: inlinehint nounwind uwtable
define internal i64 @ossl_time_zero() #3 {
  %1 = alloca %struct.OSSL_TIME, align 8
  %2 = call i64 @ossl_ticks2time(i64 noundef 0)
  %3 = getelementptr inbounds nuw %struct.OSSL_TIME, ptr %1, i32 0, i32 0
  store i64 %2, ptr %3, align 8
  %4 = getelementptr inbounds nuw %struct.OSSL_TIME, ptr %1, i32 0, i32 0
  %5 = load i64, ptr %4, align 8
  ret i64 %5
}

; Function Attrs: nounwind uwtable
define internal i64 @get_rtt(ptr noundef %0) #0 {
  %2 = alloca %struct.OSSL_TIME, align 8
  %3 = alloca ptr, align 8
  %4 = alloca %struct.ossl_rtt_info_st, align 8
  %5 = alloca %struct.OSSL_TIME, align 8
  store ptr %0, ptr %3, align 8, !tbaa !12
  %6 = load ptr, ptr %3, align 8, !tbaa !12
  %7 = getelementptr inbounds nuw %struct.quic_rstream_st, ptr %6, i32 0, i32 2
  %8 = load ptr, ptr %7, align 8, !tbaa !21
  %9 = icmp ne ptr %8, null
  br i1 %9, label %10, label %15

10:                                               ; preds = %1
  call void @llvm.lifetime.start.p0(i64 32, ptr %4) #8
  %11 = load ptr, ptr %3, align 8, !tbaa !12
  %12 = getelementptr inbounds nuw %struct.quic_rstream_st, ptr %11, i32 0, i32 2
  %13 = load ptr, ptr %12, align 8, !tbaa !21
  call void @ossl_statm_get_rtt_info(ptr noundef %13, ptr noundef %4)
  %14 = getelementptr inbounds nuw %struct.ossl_rtt_info_st, ptr %4, i32 0, i32 0
  call void @llvm.memcpy.p0.p0.i64(ptr align 8 %2, ptr align 8 %14, i64 8, i1 false), !tbaa.struct !40
  call void @llvm.lifetime.end.p0(i64 32, ptr %4) #8
  br label %18

15:                                               ; preds = %1
  call void @llvm.lifetime.start.p0(i64 8, ptr %5) #8
  %16 = call i64 @ossl_time_zero()
  %17 = getelementptr inbounds nuw %struct.OSSL_TIME, ptr %5, i32 0, i32 0
  store i64 %16, ptr %17, align 8
  call void @llvm.memcpy.p0.p0.i64(ptr align 8 %2, ptr align 8 %5, i64 8, i1 false), !tbaa.struct !40
  call void @llvm.lifetime.end.p0(i64 8, ptr %5) #8
  br label %18

18:                                               ; preds = %15, %10
  %19 = getelementptr inbounds nuw %struct.OSSL_TIME, ptr %2, i32 0, i32 0
  %20 = load i64, ptr %19, align 8
  ret i64 %20
}

; Function Attrs: inlinehint nounwind uwtable
define internal void @ring_buf_cpop_range(ptr noundef %0, i64 noundef %1, i64 noundef %2, i32 noundef %3) #3 {
  %5 = alloca ptr, align 8
  %6 = alloca i64, align 8
  %7 = alloca i64, align 8
  %8 = alloca i32, align 4
  %9 = alloca i64, align 8
  %10 = alloca i64, align 8
  %11 = alloca i64, align 8
  store ptr %0, ptr %5, align 8, !tbaa !22
  store i64 %1, ptr %6, align 8, !tbaa !10
  store i64 %2, ptr %7, align 8, !tbaa !10
  store i32 %3, ptr %8, align 4, !tbaa !28
  %12 = load i64, ptr %6, align 8, !tbaa !10
  %13 = load ptr, ptr %5, align 8, !tbaa !22
  %14 = getelementptr inbounds nuw %struct.ring_buf, ptr %13, i32 0, i32 3
  %15 = load i64, ptr %14, align 8, !tbaa !26
  %16 = icmp ugt i64 %12, %15
  br i1 %16, label %20, label %17

17:                                               ; preds = %4
  %18 = load i64, ptr %7, align 8, !tbaa !10
  %19 = icmp uge i64 %18, 4611686018427387904
  br i1 %19, label %20, label %21

20:                                               ; preds = %17, %4
  br label %114

21:                                               ; preds = %17
  %22 = load i32, ptr %8, align 4, !tbaa !28
  %23 = icmp ne i32 %22, 0
  br i1 %23, label %24, label %96

24:                                               ; preds = %21
  %25 = load ptr, ptr %5, align 8, !tbaa !22
  %26 = getelementptr inbounds nuw %struct.ring_buf, ptr %25, i32 0, i32 1
  %27 = load i64, ptr %26, align 8, !tbaa !25
  %28 = icmp ugt i64 %27, 0
  br i1 %28, label %29, label %96

29:                                               ; preds = %24
  %30 = load i64, ptr %7, align 8, !tbaa !10
  %31 = load ptr, ptr %5, align 8, !tbaa !22
  %32 = getelementptr inbounds nuw %struct.ring_buf, ptr %31, i32 0, i32 3
  %33 = load i64, ptr %32, align 8, !tbaa !26
  %34 = icmp ugt i64 %30, %33
  br i1 %34, label %35, label %96

35:                                               ; preds = %29
  call void @llvm.lifetime.start.p0(i64 8, ptr %9) #8
  %36 = load ptr, ptr %5, align 8, !tbaa !22
  %37 = getelementptr inbounds nuw %struct.ring_buf, ptr %36, i32 0, i32 3
  %38 = load i64, ptr %37, align 8, !tbaa !26
  %39 = load ptr, ptr %5, align 8, !tbaa !22
  %40 = getelementptr inbounds nuw %struct.ring_buf, ptr %39, i32 0, i32 1
  %41 = load i64, ptr %40, align 8, !tbaa !25
  %42 = urem i64 %38, %41
  store i64 %42, ptr %9, align 8, !tbaa !10
  call void @llvm.lifetime.start.p0(i64 8, ptr %10) #8
  %43 = load i64, ptr %7, align 8, !tbaa !10
  %44 = add i64 %43, 1
  store i64 %44, ptr %10, align 8, !tbaa !10
  call void @llvm.lifetime.start.p0(i64 8, ptr %11) #8
  %45 = load i64, ptr %10, align 8, !tbaa !10
  %46 = load ptr, ptr %5, align 8, !tbaa !22
  %47 = getelementptr inbounds nuw %struct.ring_buf, ptr %46, i32 0, i32 2
  %48 = load i64, ptr %47, align 8, !tbaa !27
  %49 = icmp ugt i64 %45, %48
  br i1 %49, label %50, label %54

50:                                               ; preds = %35
  %51 = load ptr, ptr %5, align 8, !tbaa !22
  %52 = getelementptr inbounds nuw %struct.ring_buf, ptr %51, i32 0, i32 2
  %53 = load i64, ptr %52, align 8, !tbaa !27
  store i64 %53, ptr %10, align 8, !tbaa !10
  br label %54

54:                                               ; preds = %50, %35
  %55 = load i64, ptr %10, align 8, !tbaa !10
  %56 = load ptr, ptr %5, align 8, !tbaa !22
  %57 = getelementptr inbounds nuw %struct.ring_buf, ptr %56, i32 0, i32 3
  %58 = load i64, ptr %57, align 8, !tbaa !26
  %59 = sub i64 %55, %58
  store i64 %59, ptr %11, align 8, !tbaa !10
  %60 = load i64, ptr %11, align 8, !tbaa !10
  %61 = load ptr, ptr %5, align 8, !tbaa !22
  %62 = getelementptr inbounds nuw %struct.ring_buf, ptr %61, i32 0, i32 1
  %63 = load i64, ptr %62, align 8, !tbaa !25
  %64 = load i64, ptr %9, align 8, !tbaa !10
  %65 = sub i64 %63, %64
  %66 = icmp ugt i64 %60, %65
  br i1 %66, label %67, label %85

67:                                               ; preds = %54
  %68 = load ptr, ptr %5, align 8, !tbaa !22
  %69 = getelementptr inbounds nuw %struct.ring_buf, ptr %68, i32 0, i32 0
  %70 = load ptr, ptr %69, align 8, !tbaa !24
  %71 = load i64, ptr %9, align 8, !tbaa !10
  %72 = getelementptr inbounds nuw i8, ptr %70, i64 %71
  %73 = load ptr, ptr %5, align 8, !tbaa !22
  %74 = getelementptr inbounds nuw %struct.ring_buf, ptr %73, i32 0, i32 1
  %75 = load i64, ptr %74, align 8, !tbaa !25
  %76 = load i64, ptr %9, align 8, !tbaa !10
  %77 = sub i64 %75, %76
  call void @OPENSSL_cleanse(ptr noundef %72, i64 noundef %77)
  %78 = load ptr, ptr %5, align 8, !tbaa !22
  %79 = getelementptr inbounds nuw %struct.ring_buf, ptr %78, i32 0, i32 1
  %80 = load i64, ptr %79, align 8, !tbaa !25
  %81 = load i64, ptr %9, align 8, !tbaa !10
  %82 = sub i64 %80, %81
  %83 = load i64, ptr %11, align 8, !tbaa !10
  %84 = sub i64 %83, %82
  store i64 %84, ptr %11, align 8, !tbaa !10
  store i64 0, ptr %9, align 8, !tbaa !10
  br label %85

85:                                               ; preds = %67, %54
  %86 = load i64, ptr %11, align 8, !tbaa !10
  %87 = icmp ugt i64 %86, 0
  br i1 %87, label %88, label %95

88:                                               ; preds = %85
  %89 = load ptr, ptr %5, align 8, !tbaa !22
  %90 = getelementptr inbounds nuw %struct.ring_buf, ptr %89, i32 0, i32 0
  %91 = load ptr, ptr %90, align 8, !tbaa !24
  %92 = load i64, ptr %9, align 8, !tbaa !10
  %93 = getelementptr inbounds nuw i8, ptr %91, i64 %92
  %94 = load i64, ptr %11, align 8, !tbaa !10
  call void @OPENSSL_cleanse(ptr noundef %93, i64 noundef %94)
  br label %95

95:                                               ; preds = %88, %85
  call void @llvm.lifetime.end.p0(i64 8, ptr %11) #8
  call void @llvm.lifetime.end.p0(i64 8, ptr %10) #8
  call void @llvm.lifetime.end.p0(i64 8, ptr %9) #8
  br label %96

96:                                               ; preds = %95, %29, %24, %21
  %97 = load i64, ptr %7, align 8, !tbaa !10
  %98 = add i64 %97, 1
  %99 = load ptr, ptr %5, align 8, !tbaa !22
  %100 = getelementptr inbounds nuw %struct.ring_buf, ptr %99, i32 0, i32 3
  store i64 %98, ptr %100, align 8, !tbaa !26
  %101 = load ptr, ptr %5, align 8, !tbaa !22
  %102 = getelementptr inbounds nuw %struct.ring_buf, ptr %101, i32 0, i32 2
  %103 = load i64, ptr %102, align 8, !tbaa !27
  %104 = load ptr, ptr %5, align 8, !tbaa !22
  %105 = getelementptr inbounds nuw %struct.ring_buf, ptr %104, i32 0, i32 3
  %106 = load i64, ptr %105, align 8, !tbaa !26
  %107 = icmp ult i64 %103, %106
  br i1 %107, label %108, label %114

108:                                              ; preds = %96
  %109 = load ptr, ptr %5, align 8, !tbaa !22
  %110 = getelementptr inbounds nuw %struct.ring_buf, ptr %109, i32 0, i32 3
  %111 = load i64, ptr %110, align 8, !tbaa !26
  %112 = load ptr, ptr %5, align 8, !tbaa !22
  %113 = getelementptr inbounds nuw %struct.ring_buf, ptr %112, i32 0, i32 2
  store i64 %111, ptr %113, align 8, !tbaa !27
  br label %114

114:                                              ; preds = %20, %108, %96
  ret void
}

; Function Attrs: nounwind uwtable
define i32 @ossl_quic_rstream_release_record(ptr noundef %0, i64 noundef %1) #0 {
  %3 = alloca i32, align 4
  %4 = alloca ptr, align 8
  %5 = alloca i64, align 8
  %6 = alloca i64, align 8
  %7 = alloca i32, align 4
  %8 = alloca %struct.OSSL_TIME, align 8
  store ptr %0, ptr %4, align 8, !tbaa !12
  store i64 %1, ptr %5, align 8, !tbaa !10
  call void @llvm.lifetime.start.p0(i64 8, ptr %6) #8
  %9 = load ptr, ptr %4, align 8, !tbaa !12
  %10 = getelementptr inbounds nuw %struct.quic_rstream_st, ptr %9, i32 0, i32 0
  %11 = call i32 @ossl_sframe_list_is_head_locked(ptr noundef %10)
  %12 = icmp ne i32 %11, 0
  br i1 %12, label %14, label %13

13:                                               ; preds = %2
  store i32 0, ptr %3, align 4
  store i32 1, ptr %7, align 4
  br label %84

14:                                               ; preds = %2
  %15 = load i64, ptr %5, align 8, !tbaa !10
  %16 = load ptr, ptr %4, align 8, !tbaa !12
  %17 = getelementptr inbounds nuw %struct.quic_rstream_st, ptr %16, i32 0, i32 3
  %18 = getelementptr inbounds nuw %struct.uint_range_st, ptr %17, i32 0, i32 1
  %19 = load i64, ptr %18, align 8, !tbaa !47
  %20 = load ptr, ptr %4, align 8, !tbaa !12
  %21 = getelementptr inbounds nuw %struct.quic_rstream_st, ptr %20, i32 0, i32 3
  %22 = getelementptr inbounds nuw %struct.uint_range_st, ptr %21, i32 0, i32 0
  %23 = load i64, ptr %22, align 8, !tbaa !48
  %24 = sub i64 %19, %23
  %25 = icmp ugt i64 %15, %24
  br i1 %25, label %26, label %35

26:                                               ; preds = %14
  %27 = load i64, ptr %5, align 8, !tbaa !10
  %28 = icmp ne i64 %27, -1
  br i1 %28, label %29, label %30

29:                                               ; preds = %26
  store i32 0, ptr %3, align 4
  store i32 1, ptr %7, align 4
  br label %84

30:                                               ; preds = %26
  %31 = load ptr, ptr %4, align 8, !tbaa !12
  %32 = getelementptr inbounds nuw %struct.quic_rstream_st, ptr %31, i32 0, i32 3
  %33 = getelementptr inbounds nuw %struct.uint_range_st, ptr %32, i32 0, i32 1
  %34 = load i64, ptr %33, align 8, !tbaa !47
  store i64 %34, ptr %6, align 8, !tbaa !10
  br label %42

35:                                               ; preds = %14
  %36 = load ptr, ptr %4, align 8, !tbaa !12
  %37 = getelementptr inbounds nuw %struct.quic_rstream_st, ptr %36, i32 0, i32 3
  %38 = getelementptr inbounds nuw %struct.uint_range_st, ptr %37, i32 0, i32 0
  %39 = load i64, ptr %38, align 8, !tbaa !48
  %40 = load i64, ptr %5, align 8, !tbaa !10
  %41 = add i64 %39, %40
  store i64 %41, ptr %6, align 8, !tbaa !10
  br label %42

42:                                               ; preds = %35, %30
  %43 = load ptr, ptr %4, align 8, !tbaa !12
  %44 = getelementptr inbounds nuw %struct.quic_rstream_st, ptr %43, i32 0, i32 0
  %45 = load i64, ptr %6, align 8, !tbaa !10
  %46 = call i32 @ossl_sframe_list_drop_frames(ptr noundef %44, i64 noundef %45)
  %47 = icmp ne i32 %46, 0
  br i1 %47, label %49, label %48

48:                                               ; preds = %42
  store i32 0, ptr %3, align 4
  store i32 1, ptr %7, align 4
  br label %84

49:                                               ; preds = %42
  %50 = load i64, ptr %6, align 8, !tbaa !10
  %51 = icmp ugt i64 %50, 0
  br i1 %51, label %52, label %61

52:                                               ; preds = %49
  %53 = load ptr, ptr %4, align 8, !tbaa !12
  %54 = getelementptr inbounds nuw %struct.quic_rstream_st, ptr %53, i32 0, i32 4
  %55 = load i64, ptr %6, align 8, !tbaa !10
  %56 = sub i64 %55, 1
  %57 = load ptr, ptr %4, align 8, !tbaa !12
  %58 = getelementptr inbounds nuw %struct.quic_rstream_st, ptr %57, i32 0, i32 0
  %59 = getelementptr inbounds nuw %struct.sframe_list_st, ptr %58, i32 0, i32 6
  %60 = load i32, ptr %59, align 4, !tbaa !31
  call void @ring_buf_cpop_range(ptr noundef %54, i64 noundef 0, i64 noundef %56, i32 noundef %60)
  br label %61

61:                                               ; preds = %52, %49
  %62 = load ptr, ptr %4, align 8, !tbaa !12
  %63 = getelementptr inbounds nuw %struct.quic_rstream_st, ptr %62, i32 0, i32 1
  %64 = load ptr, ptr %63, align 8, !tbaa !14
  %65 = icmp ne ptr %64, null
  br i1 %65, label %66, label %83

66:                                               ; preds = %61
  call void @llvm.lifetime.start.p0(i64 8, ptr %8) #8
  %67 = load ptr, ptr %4, align 8, !tbaa !12
  %68 = call i64 @get_rtt(ptr noundef %67)
  %69 = getelementptr inbounds nuw %struct.OSSL_TIME, ptr %8, i32 0, i32 0
  store i64 %68, ptr %69, align 8
  %70 = load ptr, ptr %4, align 8, !tbaa !12
  %71 = getelementptr inbounds nuw %struct.quic_rstream_st, ptr %70, i32 0, i32 1
  %72 = load ptr, ptr %71, align 8, !tbaa !14
  %73 = load i64, ptr %6, align 8, !tbaa !10
  %74 = getelementptr inbounds nuw %struct.OSSL_TIME, ptr %8, i32 0, i32 0
  %75 = load i64, ptr %74, align 8
  %76 = call i32 @ossl_quic_rxfc_on_retire(ptr noundef %72, i64 noundef %73, i64 %75)
  %77 = icmp ne i32 %76, 0
  br i1 %77, label %79, label %78

78:                                               ; preds = %66
  store i32 0, ptr %3, align 4
  store i32 1, ptr %7, align 4
  br label %80

79:                                               ; preds = %66
  store i32 0, ptr %7, align 4
  br label %80

80:                                               ; preds = %79, %78
  call void @llvm.lifetime.end.p0(i64 8, ptr %8) #8
  %81 = load i32, ptr %7, align 4
  switch i32 %81, label %84 [
    i32 0, label %82
  ]

82:                                               ; preds = %80
  br label %83

83:                                               ; preds = %82, %61
  store i32 1, ptr %3, align 4
  store i32 1, ptr %7, align 4
  br label %84

84:                                               ; preds = %83, %80, %48, %29, %13
  call void @llvm.lifetime.end.p0(i64 8, ptr %6) #8
  %85 = load i32, ptr %3, align 4
  ret i32 %85
}