; Function Attrs: nounwind uwtable
define range(i32 0, 2) i32 @ossl_quic_rstream_release_record(ptr noundef %0, i64 noundef %1) local_unnamed_addr #0 {
  %3 = alloca %struct.ossl_rtt_info_st, align 8
  %4 = tail call i32 @ossl_sframe_list_is_head_locked(ptr noundef %0) #10
  %.not = icmp eq i32 %4, 0
  br i1 %.not, label %59, label %5

5:                                                ; preds = %2
  %6 = getelementptr inbounds nuw i8, ptr %0, i64 64
  %7 = getelementptr inbounds nuw i8, ptr %0, i64 72
  %8 = load i64, ptr %7, align 8, !tbaa !32
  %9 = load i64, ptr %6, align 8, !tbaa !33
  %10 = sub i64 %8, %9
  %11 = icmp ugt i64 %1, %10
  br i1 %11, label %12, label %13

12:                                               ; preds = %5
  %.not22 = icmp eq i64 %1, -1
  br i1 %.not22, label %15, label %59

13:                                               ; preds = %5
  %14 = add i64 %9, %1
  br label %15

15:                                               ; preds = %12, %13
  %.020 = phi i64 [ %14, %13 ], [ %8, %12 ]
  %16 = tail call i32 @ossl_sframe_list_drop_frames(ptr noundef nonnull %0, i64 noundef %.020) #10
  %.not23 = icmp eq i32 %16, 0
  br i1 %.not23, label %59, label %17

17:                                               ; preds = %15
  %.not24 = icmp eq i64 %.020, 0
  br i1 %.not24, label %ring_buf_cpop_range.exit, label %18

18:                                               ; preds = %17
  %19 = getelementptr inbounds nuw i8, ptr %0, i64 80
  %20 = add i64 %.020, -1
  %21 = getelementptr inbounds nuw i8, ptr %0, i64 104
  %22 = load i64, ptr %21, align 8, !tbaa !19
  %23 = icmp ugt i64 %20, 4611686018427387903
  br i1 %23, label %ring_buf_cpop_range.exit, label %24

24:                                               ; preds = %18
  %25 = getelementptr inbounds nuw i8, ptr %0, i64 44
  %26 = load i32, ptr %25, align 4, !tbaa !21
  %.not.i = icmp eq i32 %26, 0
  br i1 %.not.i, label %47, label %27

27:                                               ; preds = %24
  %28 = getelementptr inbounds nuw i8, ptr %0, i64 88
  %29 = load i64, ptr %28, align 8, !tbaa !17
  %.not45.i = icmp ne i64 %29, 0
  %30 = icmp ugt i64 %20, %22
  %or.cond.i = select i1 %.not45.i, i1 %30, i1 false
  br i1 %or.cond.i, label %31, label %47

31:                                               ; preds = %27
  %32 = urem i64 %22, %29
  %33 = getelementptr inbounds nuw i8, ptr %0, i64 96
  %34 = load i64, ptr %33, align 8, !tbaa !18
  %.not46.i = icmp ult i64 %20, %34
  %spec.select.i = select i1 %.not46.i, i64 %.020, i64 %34
  %35 = sub i64 %spec.select.i, %22
  %36 = sub i64 %29, %32
  %37 = icmp ugt i64 %35, %36
  br i1 %37, label %38, label %43

38:                                               ; preds = %31
  %39 = load ptr, ptr %19, align 8, !tbaa !20
  %40 = getelementptr inbounds nuw i8, ptr %39, i64 %32
  tail call void @OPENSSL_cleanse(ptr noundef %40, i64 noundef %36) #10
  %41 = load i64, ptr %28, align 8, !tbaa !17
  %.neg.i = add i64 %35, %32
  %42 = sub i64 %.neg.i, %41
  br label %43

43:                                               ; preds = %38, %31
  %.036.i = phi i64 [ 0, %38 ], [ %32, %31 ]
  %.0.i = phi i64 [ %42, %38 ], [ %35, %31 ]
  %.not47.i = icmp eq i64 %.0.i, 0
  br i1 %.not47.i, label %47, label %44

44:                                               ; preds = %43
  %45 = load ptr, ptr %19, align 8, !tbaa !20
  %46 = getelementptr inbounds nuw i8, ptr %45, i64 %.036.i
  tail call void @OPENSSL_cleanse(ptr noundef %46, i64 noundef %.0.i) #10
  br label %47

47:                                               ; preds = %44, %43, %27, %24
  store i64 %.020, ptr %21, align 8, !tbaa !19
  %48 = getelementptr inbounds nuw i8, ptr %0, i64 96
  %49 = load i64, ptr %48, align 8, !tbaa !18
  %.not48.i = icmp ugt i64 %49, %20
  br i1 %.not48.i, label %ring_buf_cpop_range.exit, label %50

50:                                               ; preds = %47
  store i64 %.020, ptr %48, align 8, !tbaa !18
  br label %ring_buf_cpop_range.exit

ring_buf_cpop_range.exit:                         ; preds = %50, %47, %18, %17
  %51 = getelementptr inbounds nuw i8, ptr %0, i64 48
  %52 = load ptr, ptr %51, align 8, !tbaa !3
  %.not25 = icmp eq ptr %52, null
  br i1 %.not25, label %58, label %53

53:                                               ; preds = %ring_buf_cpop_range.exit
  %54 = getelementptr i8, ptr %0, i64 56
  %.val = load ptr, ptr %54, align 8, !tbaa !16
  %.not.i27 = icmp eq ptr %.val, null
  br i1 %.not.i27, label %get_rtt.exit, label %55

55:                                               ; preds = %53
  call void @llvm.lifetime.start.p0(i64 32, ptr nonnull %3) #10
  call void @ossl_statm_get_rtt_info(ptr noundef nonnull %.val, ptr noundef nonnull %3) #10
  %.sroa.02.0.copyload.i = load i64, ptr %3, align 8, !tbaa !24
  call void @llvm.lifetime.end.p0(i64 32, ptr nonnull %3) #10
  %.pre = load ptr, ptr %51, align 8, !tbaa !3
  br label %get_rtt.exit

get_rtt.exit:                                     ; preds = %53, %55
  %56 = phi ptr [ %.pre, %55 ], [ %52, %53 ]
  %.sroa.02.0.i = phi i64 [ %.sroa.02.0.copyload.i, %55 ], [ 0, %53 ]
  %57 = call i32 @ossl_quic_rxfc_on_retire(ptr noundef %56, i64 noundef %.020, i64 %.sroa.02.0.i) #10
  %.not26.not = icmp eq i32 %57, 0
  br i1 %.not26.not, label %59, label %58

58:                                               ; preds = %get_rtt.exit, %ring_buf_cpop_range.exit
  br label %59

59:                                               ; preds = %15, %12, %2, %get_rtt.exit, %58
  %.0 = phi i32 [ 1, %58 ], [ 0, %get_rtt.exit ], [ 0, %2 ], [ 0, %12 ], [ 0, %15 ]
  ret i32 %.0
}